target datalayout = "e-m:e-p270:32:32-p271:32:32-p272:64:64-i64:64-i128:128-f80:128-n8:16:32:64-S128"
target triple = "x86_64-pc-linux-gnu"

%struct.u_hash = type { i8 }
%struct.u_eq = type { i8 }
%class.table2map.151 = type { %class.core_hashtable.152 }
%class.core_hashtable.152 = type <{ ptr, i32, i32, i32, [4 x i8] }>
%class.default_map_entry.186 = type { %class.default_hash_entry.187 }
%class.default_hash_entry.187 = type { i32, i32, %struct._key_data }
%struct._key_data = type { i32, ptr }
%"struct.datalog::costs" = type { i32, i32 }
%"class.datalog::instruction" = type { ptr, %"class.datalog::accounted_object.base", [7 x i8], %class.u_map.149 }
%"class.datalog::accounted_object.base" = type <{ ptr, ptr, %"struct.datalog::costs", %"struct.datalog::costs", i8 }>
%class.u_map.149 = type { %class.map.150 }
%class.map.150 = type { %class.table2map.151 }
%"class.datalog::instr_dealloc" = type <{ %"class.datalog::instruction", i32, [4 x i8] }>
%"class.datalog::accounted_object" = type <{ ptr, ptr, %"struct.datalog::costs", %"struct.datalog::costs", i8, [7 x i8] }>
%"struct.table2map<default_map_entry<unsigned int, datalog::tr_infrastructure<datalog::relation_traits>::base_fn *>, u_hash, u_eq>::entry_hash_proc" = type { i8 }
%"struct.table2map<default_map_entry<unsigned int, datalog::tr_infrastructure<datalog::relation_traits>::base_fn *>, u_hash, u_eq>::entry_eq_proc" = type { i8 }

; Function Attrs: inlinehint mustprogress nounwind uwtable
define linkonce_odr hidden void @_ZN18default_hash_entryI9_key_dataIjPN7datalog17tr_infrastructureINS1_15relation_traitsEE7base_fnEEEC2Ev(ptr noundef nonnull align 8 dereferenceable(24) %0) unnamed_addr #7 comdat align 2 {
  %2 = alloca ptr, align 8
  store ptr %0, ptr %2, align 8, !tbaa !569
  %3 = load ptr, ptr %2, align 8
  %4 = getelementptr inbounds nuw %class.default_hash_entry.187, ptr %3, i32 0, i32 0
  store i32 0, ptr %4, align 8, !tbaa !571
  %5 = getelementptr inbounds nuw %class.default_hash_entry.187, ptr %3, i32 0, i32 1
  store i32 0, ptr %5, align 4, !tbaa !574
  ret void
}

; Function Attrs: mustprogress nounwind uwtable
define linkonce_odr hidden void @_ZNSt12_Destroy_auxILb1EE9__destroyIP17default_map_entryIjPN7datalog17tr_infrastructureINS3_15relation_traitsEE7base_fnEEEEvT_SB_(ptr noundef %0, ptr noundef %1) #5 comdat align 2 {
  %3 = alloca ptr, align 8
  %4 = alloca ptr, align 8
  store ptr %0, ptr %3, align 8, !tbaa !545
  store ptr %1, ptr %4, align 8, !tbaa !545
  ret void
}

; Function Attrs: inlinehint mustprogress nounwind uwtable
define linkonce_odr hidden void @_ZN17default_map_entryIjPN7datalog17tr_infrastructureINS0_15relation_traitsEE7base_fnEEC2Ev(ptr noundef nonnull align 8 dereferenceable(24) %0) unnamed_addr #7 comdat align 2 {
  %2 = alloca ptr, align 8
  store ptr %0, ptr %2, align 8, !tbaa !545
  %3 = load ptr, ptr %2, align 8
  call void @_ZN18default_hash_entryI9_key_dataIjPN7datalog17tr_infrastructureINS1_15relation_traitsEE7base_fnEEEC2Ev(ptr noundef nonnull align 8 dereferenceable(24) %3) #3
  ret void
}

; Function Attrs: noinline noreturn nounwind uwtable
define linkonce_odr hidden void @__clang_call_terminate(ptr noundef %0) #8 comdat {
  %2 = call ptr @__cxa_begin_catch(ptr %0) #3
  call void @_ZSt9terminatev() #22
  unreachable
}

; Function Attrs: inlinehint mustprogress uwtable
define linkonce_odr hidden void @_ZSt8_DestroyIP17default_map_entryIjPN7datalog17tr_infrastructureINS1_15relation_traitsEE7base_fnEEEvT_S9_(ptr noundef %0, ptr noundef %1) #6 comdat {
  %3 = alloca ptr, align 8
  %4 = alloca ptr, align 8
  store ptr %0, ptr %3, align 8, !tbaa !545
  store ptr %1, ptr %4, align 8, !tbaa !545
  %5 = load ptr, ptr %3, align 8, !tbaa !545
  %6 = load ptr, ptr %4, align 8, !tbaa !545
  call void @_ZNSt12_Destroy_auxILb1EE9__destroyIP17default_map_entryIjPN7datalog17tr_infrastructureINS3_15relation_traitsEE7base_fnEEEEvT_SB_(ptr noundef %5, ptr noundef %6)
  ret void
}

; Function Attrs: inlinehint mustprogress nounwind uwtable
define linkonce_odr hidden void @_ZSt18_Construct_novalueI17default_map_entryIjPN7datalog17tr_infrastructureINS1_15relation_traitsEE7base_fnEEEvPT_(ptr noundef %0) #7 comdat {
  %2 = alloca ptr, align 8
  store ptr %0, ptr %2, align 8, !tbaa !545
  %3 = load ptr, ptr %2, align 8, !tbaa !545
  call void @_ZN17default_map_entryIjPN7datalog17tr_infrastructureINS0_15relation_traitsEE7base_fnEEC2Ev(ptr noundef nonnull align 8 dereferenceable(24) %3) #3
  ret void
}

; Function Attrs: mustprogress uwtable
define linkonce_odr hidden noundef ptr @_ZNSt35__uninitialized_default_novalue_n_1ILb0EE26__uninit_default_novalue_nIP17default_map_entryIjPN7datalog17tr_infrastructureINS3_15relation_traitsEE7base_fnEEjEET_SB_T0_(ptr noundef %0, i32 noundef %1) #4 comdat align 2 personality ptr @__gxx_personality_v0 {
  %3 = alloca ptr, align 8
  %4 = alloca i32, align 4
  %5 = alloca ptr, align 8
  %6 = alloca ptr, align 8
  %7 = alloca i32, align 4
  store ptr %0, ptr %3, align 8, !tbaa !545
  store i32 %1, ptr %4, align 4, !tbaa !38
  call void @llvm.lifetime.start.p0(i64 8, ptr %5) #3
  %8 = load ptr, ptr %3, align 8, !tbaa !545
  store ptr %8, ptr %5, align 8, !tbaa !545
  br label %9

9:                                                ; preds = %15, %2
  %10 = load i32, ptr %4, align 4, !tbaa !38
  %11 = icmp ugt i32 %10, 0
  br i1 %11, label %12, label %30

12:                                               ; preds = %9
  %13 = load ptr, ptr %5, align 8, !tbaa !545
  invoke void @_ZSt18_Construct_novalueI17default_map_entryIjPN7datalog17tr_infrastructureINS1_15relation_traitsEE7base_fnEEEvPT_(ptr noundef %13)
          to label %14 unwind label %20

14:                                               ; preds = %12
  br label %15

15:                                               ; preds = %14
  %16 = load i32, ptr %4, align 4, !tbaa !38
  %17 = add i32 %16, -1
  store i32 %17, ptr %4, align 4, !tbaa !38
  %18 = load ptr, ptr %5, align 8, !tbaa !545
  %19 = getelementptr inbounds nuw %class.default_map_entry.186, ptr %18, i32 1
  store ptr %19, ptr %5, align 8, !tbaa !545
  br label %9, !llvm.loop !568

20:                                               ; preds = %12
  %21 = landingpad { ptr, i32 }
          catch ptr null
  %22 = extractvalue { ptr, i32 } %21, 0
  store ptr %22, ptr %6, align 8
  %23 = extractvalue { ptr, i32 } %21, 1
  store i32 %23, ptr %7, align 4
  br label %24

24:                                               ; preds = %20
  %25 = load ptr, ptr %6, align 8
  %26 = call ptr @__cxa_begin_catch(ptr %25) #3
  %27 = load ptr, ptr %3, align 8, !tbaa !545
  %28 = load ptr, ptr %5, align 8, !tbaa !545
  invoke void @_ZSt8_DestroyIP17default_map_entryIjPN7datalog17tr_infrastructureINS1_15relation_traitsEE7base_fnEEEvT_S9_(ptr noundef %27, ptr noundef %28)
          to label %29 unwind label %32

29:                                               ; preds = %24
  invoke void @__cxa_rethrow() #23
          to label %46 unwind label %32

30:                                               ; preds = %9
  %31 = load ptr, ptr %5, align 8, !tbaa !545
  call void @llvm.lifetime.end.p0(i64 8, ptr %5) #3
  ret ptr %31

32:                                               ; preds = %29, %24
  %33 = landingpad { ptr, i32 }
          cleanup
  %34 = extractvalue { ptr, i32 } %33, 0
  store ptr %34, ptr %6, align 8
  %35 = extractvalue { ptr, i32 } %33, 1
  store i32 %35, ptr %7, align 4
  invoke void @__cxa_end_catch()
          to label %36 unwind label %43

36:                                               ; preds = %32
  call void @llvm.lifetime.end.p0(i64 8, ptr %5) #3
  br label %38

37:                                               ; No predecessors!
  unreachable

38:                                               ; preds = %36
  %39 = load ptr, ptr %6, align 8
  %40 = load i32, ptr %7, align 4
  %41 = insertvalue { ptr, i32 } poison, ptr %39, 0
  %42 = insertvalue { ptr, i32 } %41, i32 %40, 1
  resume { ptr, i32 } %42

43:                                               ; preds = %32
  %44 = landingpad { ptr, i32 }
          catch ptr null
  %45 = extractvalue { ptr, i32 } %44, 0
  call void @__clang_call_terminate(ptr %45) #22
  unreachable

46:                                               ; preds = %29
  unreachable
}

; Function Attrs: inlinehint mustprogress uwtable
define linkonce_odr hidden noundef ptr @_ZSt33__uninitialized_default_novalue_nIP17default_map_entryIjPN7datalog17tr_infrastructureINS1_15relation_traitsEE7base_fnEEjET_S9_T0_(ptr noundef %0, i32 noundef %1) #6 comdat {
  %3 = alloca ptr, align 8
  %4 = alloca i32, align 4
  store ptr %0, ptr %3, align 8, !tbaa !545
  store i32 %1, ptr %4, align 4, !tbaa !38
  %5 = load ptr, ptr %3, align 8, !tbaa !545
  %6 = load i32, ptr %4, align 4, !tbaa !38
  %7 = call noundef ptr @_ZNSt35__uninitialized_default_novalue_n_1ILb0EE26__uninit_default_novalue_nIP17default_map_entryIjPN7datalog17tr_infrastructureINS3_15relation_traitsEE7base_fnEEjEET_SB_T0_(ptr noundef %5, i32 noundef %6)
  ret ptr %7
}

; Function Attrs: inlinehint mustprogress uwtable
define linkonce_odr hidden noundef ptr @_ZSt33uninitialized_default_construct_nIP17default_map_entryIjPN7datalog17tr_infrastructureINS1_15relation_traitsEE7base_fnEEjET_S9_T0_(ptr noundef %0, i32 noundef %1) #6 comdat {
  %3 = alloca ptr, align 8
  %4 = alloca i32, align 4
  store ptr %0, ptr %3, align 8, !tbaa !545
  store i32 %1, ptr %4, align 4, !tbaa !38
  %5 = load ptr, ptr %3, align 8, !tbaa !545
  %6 = load i32, ptr %4, align 4, !tbaa !38
  %7 = call noundef ptr @_ZSt33__uninitialized_default_novalue_nIP17default_map_entryIjPN7datalog17tr_infrastructureINS1_15relation_traitsEE7base_fnEEjET_S9_T0_(ptr noundef %5, i32 noundef %6)
  ret ptr %7
}

; Function Attrs: mustprogress uwtable
define linkonce_odr hidden noalias noundef ptr @_Z10alloc_vectI17default_map_entryIjPN7datalog17tr_infrastructureINS1_15relation_traitsEE7base_fnEEEPT_j(i32 noundef %0) #4 comdat {
  %2 = alloca i32, align 4
  %3 = alloca ptr, align 8
  store i32 %0, ptr %2, align 4, !tbaa !38
  call void @llvm.lifetime.start.p0(i64 8, ptr %3) #3
  %4 = load i32, ptr %2, align 4, !tbaa !38
  %5 = zext i32 %4 to i64
  %6 = mul i64 24, %5
  %7 = call noalias noundef ptr @_ZN6memory8allocateEm(i64 noundef %6)
  store ptr %7, ptr %3, align 8, !tbaa !545
  %8 = load ptr, ptr %3, align 8, !tbaa !545
  %9 = load i32, ptr %2, align 4, !tbaa !38
  %10 = call noundef ptr @_ZSt33uninitialized_default_construct_nIP17default_map_entryIjPN7datalog17tr_infrastructureINS1_15relation_traitsEE7base_fnEEjET_S9_T0_(ptr noundef %8, i32 noundef %9)
  %11 = load ptr, ptr %3, align 8, !tbaa !545
  call void @llvm.lifetime.end.p0(i64 8, ptr %3) #3
  ret ptr %11
}

; Function Attrs: mustprogress uwtable
define linkonce_odr hidden noundef ptr @_ZN14core_hashtableI17default_map_entryIjPN7datalog17tr_infrastructureINS1_15relation_traitsEE7base_fnEEN9table2mapIS7_6u_hash4u_eqE15entry_hash_procENSB_13entry_eq_procEE11alloc_tableEj(ptr noundef nonnull align 8 dereferenceable(20) %0, i32 noundef %1) #4 comdat align 2 {
  %3 = alloca ptr, align 8
  %4 = alloca i32, align 4
  %5 = alloca ptr, align 8
  store ptr %0, ptr %3, align 8, !tbaa !541
  store i32 %1, ptr %4, align 4, !tbaa !38
  call void @llvm.lifetime.start.p0(i64 8, ptr %5) #3
  %6 = load i32, ptr %4, align 4, !tbaa !38
  %7 = call noalias noundef ptr @_Z10alloc_vectI17default_map_entryIjPN7datalog17tr_infrastructureINS1_15relation_traitsEE7base_fnEEEPT_j(i32 noundef %6)
  store ptr %7, ptr %5, align 8, !tbaa !545
  %8 = load ptr, ptr %5, align 8, !tbaa !545
  call void @llvm.lifetime.end.p0(i64 8, ptr %5) #3
  ret ptr %8
}

; Function Attrs: mustprogress uwtable
define linkonce_odr hidden void @_ZN14core_hashtableI17default_map_entryIjPN7datalog17tr_infrastructureINS1_15relation_traitsEE7base_fnEEN9table2mapIS7_6u_hash4u_eqE15entry_hash_procENSB_13entry_eq_procEEC2EjRKSC_RKSD_(ptr noundef nonnull align 8 dereferenceable(20) %0, i32 noundef %1, ptr noundef nonnull align 1 dereferenceable(1) %2, ptr noundef nonnull align 1 dereferenceable(1) %3) unnamed_addr #4 comdat align 2 {
  %5 = alloca ptr, align 8
  %6 = alloca i32, align 4
  %7 = alloca ptr, align 8
  %8 = alloca ptr, align 8
  store ptr %0, ptr %5, align 8, !tbaa !541
  store i32 %1, ptr %6, align 4, !tbaa !38
  store ptr %2, ptr %7, align 8, !tbaa !562
  store ptr %3, ptr %8, align 8, !tbaa !564
  %9 = load ptr, ptr %5, align 8
  %10 = load i32, ptr %6, align 4, !tbaa !38
  %11 = call noundef ptr @_ZN14core_hashtableI17default_map_entryIjPN7datalog17tr_infrastructureINS1_15relation_traitsEE7base_fnEEN9table2mapIS7_6u_hash4u_eqE15entry_hash_procENSB_13entry_eq_procEE11alloc_tableEj(ptr noundef nonnull align 8 dereferenceable(20) %9, i32 noundef %10)
  %12 = getelementptr inbounds nuw %class.core_hashtable.152, ptr %9, i32 0, i32 0
  store ptr %11, ptr %12, align 8, !tbaa !543
  %13 = load i32, ptr %6, align 4, !tbaa !38
  %14 = getelementptr inbounds nuw %class.core_hashtable.152, ptr %9, i32 0, i32 1
  store i32 %13, ptr %14, align 8, !tbaa !544
  %15 = getelementptr inbounds nuw %class.core_hashtable.152, ptr %9, i32 0, i32 2
  store i32 0, ptr %15, align 4, !tbaa !566
  %16 = getelementptr inbounds nuw %class.core_hashtable.152, ptr %9, i32 0, i32 3
  store i32 0, ptr %16, align 8, !tbaa !567
  ret void
}

; Function Attrs: mustprogress nounwind uwtable
define linkonce_odr hidden void @_ZN9table2mapI17default_map_entryIjPN7datalog17tr_infrastructureINS1_15relation_traitsEE7base_fnEE6u_hash4u_eqE13entry_eq_procC2ERKS9_(ptr noundef nonnull align 1 dereferenceable(1) %0, ptr noundef nonnull align 1 dereferenceable(1) %1) unnamed_addr #5 comdat align 2 {
  %3 = alloca ptr, align 8
  %4 = alloca ptr, align 8
  store ptr %0, ptr %3, align 8, !tbaa !564
  store ptr %1, ptr %4, align 8, !tbaa !469
  ret void
}

; Function Attrs: mustprogress nounwind uwtable
define linkonce_odr hidden void @_ZN9table2mapI17default_map_entryIjPN7datalog17tr_infrastructureINS1_15relation_traitsEE7base_fnEE6u_hash4u_eqE15entry_hash_procC2ERKS8_(ptr noundef nonnull align 1 dereferenceable(1) %0, ptr noundef nonnull align 1 dereferenceable(1) %1) unnamed_addr #5 comdat align 2 {
  %3 = alloca ptr, align 8
  %4 = alloca ptr, align 8
  store ptr %0, ptr %3, align 8, !tbaa !562
  store ptr %1, ptr %4, align 8, !tbaa !467
  ret void
}

; Function Attrs: mustprogress uwtable
define linkonce_odr hidden void @_ZN9table2mapI17default_map_entryIjPN7datalog17tr_infrastructureINS1_15relation_traitsEE7base_fnEE6u_hash4u_eqEC2ERKS8_RKS9_(ptr noundef nonnull align 8 dereferenceable(24) %0, ptr noundef nonnull align 1 dereferenceable(1) %1, ptr noundef nonnull align 1 dereferenceable(1) %2) unnamed_addr #4 comdat align 2 {
  %4 = alloca ptr, align 8
  %5 = alloca ptr, align 8
  %6 = alloca ptr, align 8
  %7 = alloca %"struct.table2map<default_map_entry<unsigned int, datalog::tr_infrastructure<datalog::relation_traits>::base_fn *>, u_hash, u_eq>::entry_hash_proc", align 1
  %8 = alloca %"struct.table2map<default_map_entry<unsigned int, datalog::tr_infrastructure<datalog::relation_traits>::base_fn *>, u_hash, u_eq>::entry_eq_proc", align 1
  store ptr %0, ptr %4, align 8, !tbaa !282
  store ptr %1, ptr %5, align 8, !tbaa !467
  store ptr %2, ptr %6, align 8, !tbaa !469
  %9 = load ptr, ptr %4, align 8
  %10 = getelementptr inbounds nuw %class.table2map.151, ptr %9, i32 0, i32 0
  call void @llvm.lifetime.start.p0(i64 1, ptr %7) #3
  %11 = load ptr, ptr %5, align 8, !tbaa !467
  call void @_ZN9table2mapI17default_map_entryIjPN7datalog17tr_infrastructureINS1_15relation_traitsEE7base_fnEE6u_hash4u_eqE15entry_hash_procC2ERKS8_(ptr noundef nonnull align 1 dereferenceable(1) %7, ptr noundef nonnull align 1 dereferenceable(1) %11)
  call void @llvm.lifetime.start.p0(i64 1, ptr %8) #3
  %12 = load ptr, ptr %6, align 8, !tbaa !469
  call void @_ZN9table2mapI17default_map_entryIjPN7datalog17tr_infrastructureINS1_15relation_traitsEE7base_fnEE6u_hash4u_eqE13entry_eq_procC2ERKS9_(ptr noundef nonnull align 1 dereferenceable(1) %8, ptr noundef nonnull align 1 dereferenceable(1) %12)
  call void @_ZN14core_hashtableI17default_map_entryIjPN7datalog17tr_infrastructureINS1_15relation_traitsEE7base_fnEEN9table2mapIS7_6u_hash4u_eqE15entry_hash_procENSB_13entry_eq_procEEC2EjRKSC_RKSD_(ptr noundef nonnull align 8 dereferenceable(20) %10, i32 noundef 8, ptr noundef nonnull align 1 dereferenceable(1) %7, ptr noundef nonnull align 1 dereferenceable(1) %8)
  call void @llvm.lifetime.end.p0(i64 1, ptr %8) #3
  call void @llvm.lifetime.end.p0(i64 1, ptr %7) #3
  ret void
}

; Function Attrs: mustprogress uwtable
define linkonce_odr hidden void @_ZN3mapIjPN7datalog17tr_infrastructureINS0_15relation_traitsEE7base_fnE6u_hash4u_eqEC2ERKS6_RKS7_(ptr noundef nonnull align 8 dereferenceable(24) %0, ptr noundef nonnull align 1 dereferenceable(1) %1, ptr noundef nonnull align 1 dereferenceable(1) %2) unnamed_addr #4 comdat align 2 {
  %4 = alloca ptr, align 8
  %5 = alloca ptr, align 8
  %6 = alloca ptr, align 8
  store ptr %0, ptr %4, align 8, !tbaa !560
  store ptr %1, ptr %5, align 8, !tbaa !467
  store ptr %2, ptr %6, align 8, !tbaa !469
  %7 = load ptr, ptr %4, align 8
  %8 = load ptr, ptr %5, align 8, !tbaa !467
  %9 = load ptr, ptr %6, align 8, !tbaa !469
  call void @_ZN9table2mapI17default_map_entryIjPN7datalog17tr_infrastructureINS1_15relation_traitsEE7base_fnEE6u_hash4u_eqEC2ERKS8_RKS9_(ptr noundef nonnull align 8 dereferenceable(24) %7, ptr noundef nonnull align 1 dereferenceable(1) %8, ptr noundef nonnull align 1 dereferenceable(1) %9)
  ret void
}

; Function Attrs: inlinehint mustprogress uwtable
define linkonce_odr hidden void @_ZN5u_mapIPN7datalog17tr_infrastructureINS0_15relation_traitsEE7base_fnEEC2Ev(ptr noundef nonnull align 8 dereferenceable(24) %0) unnamed_addr #6 comdat align 2 {
  %2 = alloca ptr, align 8
  %3 = alloca %struct.u_hash, align 1
  %4 = alloca %struct.u_eq, align 1
  store ptr %0, ptr %2, align 8, !tbaa !558
  %5 = load ptr, ptr %2, align 8
  call void @llvm.lifetime.start.p0(i64 1, ptr %3) #3
  call void @llvm.lifetime.start.p0(i64 1, ptr %4) #3
  call void @_ZN3mapIjPN7datalog17tr_infrastructureINS0_15relation_traitsEE7base_fnE6u_hash4u_eqEC2ERKS6_RKS7_(ptr noundef nonnull align 8 dereferenceable(24) %5, ptr noundef nonnull align 1 dereferenceable(1) %3, ptr noundef nonnull align 1 dereferenceable(1) %4)
  call void @llvm.lifetime.end.p0(i64 1, ptr %4) #3
  call void @llvm.lifetime.end.p0(i64 1, ptr %3) #3
  ret void
}

; Function Attrs: mustprogress uwtable
define linkonce_odr hidden void @_ZN7datalog16accounted_objectC2Ev(ptr noundef nonnull align 8 dereferenceable(33) %0) unnamed_addr #4 comdat align 2 {
  %2 = alloca ptr, align 8
  store ptr %0, ptr %2, align 8, !tbaa !462
  %3 = load ptr, ptr %2, align 8
  %4 = getelementptr inbounds nuw %"class.datalog::accounted_object", ptr %3, i32 0, i32 0
  store ptr null, ptr %4, align 8, !tbaa !556
  %5 = getelementptr inbounds nuw %"class.datalog::accounted_object", ptr %3, i32 0, i32 1
  store ptr null, ptr %5, align 8, !tbaa !557
  %6 = getelementptr inbounds nuw %"class.datalog::accounted_object", ptr %3, i32 0, i32 2
  call void @_ZN7datalog5costsC1Ev(ptr noundef nonnull align 4 dereferenceable(8) %6)
  %7 = getelementptr inbounds nuw %"class.datalog::accounted_object", ptr %3, i32 0, i32 3
  call void @_ZN7datalog5costsC1Ev(ptr noundef nonnull align 4 dereferenceable(8) %7)
  %8 = getelementptr inbounds nuw %"class.datalog::accounted_object", ptr %3, i32 0, i32 4
  store i8 0, ptr %8, align 8, !tbaa !464
  ret void
}

; Function Attrs: inlinehint mustprogress uwtable
define linkonce_odr hidden void @_ZN7datalog11instructionC2Ev(ptr noundef nonnull align 8 dereferenceable(72) %0) unnamed_addr #6 comdat align 2 personality ptr @__gxx_personality_v0 {
  %2 = alloca ptr, align 8
  %3 = alloca ptr, align 8
  %4 = alloca i32, align 4
  store ptr %0, ptr %2, align 8, !tbaa !291
  %5 = load ptr, ptr %2, align 8
  %6 = getelementptr inbounds i8, ptr %5, i64 8
  call void @_ZN7datalog16accounted_objectC2Ev(ptr noundef nonnull align 8 dereferenceable(33) %6)
  store ptr getelementptr inbounds inrange(-16, 56) ({ [9 x ptr] }, ptr @_ZTVN7datalog11instructionE, i32 0, i32 0, i32 2), ptr %5, align 8, !tbaa !36
  %7 = getelementptr inbounds nuw %"class.datalog::instruction", ptr %5, i32 0, i32 3
  invoke void @_ZN5u_mapIPN7datalog17tr_infrastructureINS0_15relation_traitsEE7base_fnEEC2Ev(ptr noundef nonnull align 8 dereferenceable(24) %7)
          to label %8 unwind label %9

8:                                                ; preds = %1
  ret void

9:                                                ; preds = %1
  %10 = landingpad { ptr, i32 }
          cleanup
  %11 = extractvalue { ptr, i32 } %10, 0
  store ptr %11, ptr %3, align 8
  %12 = extractvalue { ptr, i32 } %10, 1
  store i32 %12, ptr %4, align 4
  %13 = getelementptr inbounds i8, ptr %5, i64 8
  call void @_ZN7datalog16accounted_objectD2Ev(ptr noundef nonnull align 8 dereferenceable(33) %13) #3
  br label %14

14:                                               ; preds = %9
  %15 = load ptr, ptr %3, align 8
  %16 = load i32, ptr %4, align 4
  %17 = insertvalue { ptr, i32 } poison, ptr %15, 0
  %18 = insertvalue { ptr, i32 } %17, i32 %16, 1
  resume { ptr, i32 } %18
}

; Function Attrs: mustprogress uwtable
define linkonce_odr hidden void @_ZN7datalog13instr_deallocC2Ej(ptr noundef nonnull align 8 dereferenceable(76) %0, i32 noundef %1) unnamed_addr #4 comdat align 2 {
  %3 = alloca ptr, align 8
  %4 = alloca i32, align 4
  store ptr %0, ptr %3, align 8, !tbaa !317
  store i32 %1, ptr %4, align 4, !tbaa !38
  %5 = load ptr, ptr %3, align 8
  call void @_ZN7datalog11instructionC2Ev(ptr noundef nonnull align 8 dereferenceable(72) %5)
  store ptr getelementptr inbounds inrange(-16, 56) ({ [9 x ptr] }, ptr @_ZTVN7datalog13instr_deallocE, i32 0, i32 0, i32 2), ptr %5, align 8, !tbaa !36
  %6 = getelementptr inbounds nuw %"class.datalog::instr_dealloc", ptr %5, i32 0, i32 1
  %7 = load i32, ptr %4, align 4, !tbaa !38
  store i32 %7, ptr %6, align 8, !tbaa !319
  ret void
}

; Function Attrs: mustprogress uwtable
define hidden noundef ptr @_ZN7datalog11instruction10mk_deallocEj(i32 noundef %0) #4 align 2 {
  %2 = alloca i32, align 4
  store i32 %0, ptr %2, align 4, !tbaa !38
  %3 = call noalias noundef ptr @_ZN6memory8allocateEm(i64 noundef 80)
  %4 = load i32, ptr %2, align 4, !tbaa !38
  call void @_ZN7datalog13instr_deallocC2Ej(ptr noundef nonnull align 8 dereferenceable(76) %3, i32 noundef %4)
  ret ptr %3
}