; Function Attrs: mustprogress uwtable
define hidden noundef ptr @_ZN7datalog11instruction10mk_deallocEj(i32 noundef %0) local_unnamed_addr #3 align 2 personality ptr @__gxx_personality_v0 {
  %2 = tail call noalias noundef ptr @_ZN6memory8allocateEm(i64 noundef 80)
  %3 = getelementptr inbounds nuw i8, ptr %2, i64 8
  %4 = getelementptr inbounds nuw i8, ptr %2, i64 24
  tail call void @llvm.memset.p0.i64(ptr noundef nonnull align 8 dereferenceable(33) %3, i8 0, i64 16, i1 false)
  tail call void @_ZN7datalog5costsC1Ev(ptr noundef nonnull align 4 dereferenceable(8) %4)
  %5 = getelementptr inbounds nuw i8, ptr %2, i64 32
  tail call void @_ZN7datalog5costsC1Ev(ptr noundef nonnull align 4 dereferenceable(8) %5)
  %6 = getelementptr inbounds nuw i8, ptr %2, i64 40
  store i8 0, ptr %6, align 8, !tbaa !294
  store ptr getelementptr inbounds nuw inrange(-16, 56) (i8, ptr @_ZTVN7datalog11instructionE, i64 16), ptr %2, align 8, !tbaa !43
  %7 = invoke noalias noundef ptr @_ZN6memory8allocateEm(i64 noundef 192)
          to label %.lr.ph.i.i.i.i.i.i.i.i.i.i.i unwind label %11

.lr.ph.i.i.i.i.i.i.i.i.i.i.i:                     ; preds = %1, %.lr.ph.i.i.i.i.i.i.i.i.i.i.i
  %.08.i.i.i.i.i.i.i.i.i.i.i = phi ptr [ %10, %.lr.ph.i.i.i.i.i.i.i.i.i.i.i ], [ %7, %1 ]
  %.057.i.i.i.i.i.i.i.i.i.i.i = phi i32 [ %9, %.lr.ph.i.i.i.i.i.i.i.i.i.i.i ], [ 8, %1 ]
  store i32 0, ptr %.08.i.i.i.i.i.i.i.i.i.i.i, align 8, !tbaa !296
  %8 = getelementptr inbounds nuw i8, ptr %.08.i.i.i.i.i.i.i.i.i.i.i, i64 4
  store i32 0, ptr %8, align 4, !tbaa !300
  %9 = add nsw i32 %.057.i.i.i.i.i.i.i.i.i.i.i, -1
  %10 = getelementptr inbounds nuw i8, ptr %.08.i.i.i.i.i.i.i.i.i.i.i, i64 24
  %.not.i.i.i.i.i.i.i.i.i.i.i = icmp eq i32 %9, 0
  br i1 %.not.i.i.i.i.i.i.i.i.i.i.i, label %_ZN7datalog13instr_deallocC2Ej.exit, label %.lr.ph.i.i.i.i.i.i.i.i.i.i.i, !llvm.loop !301

11:                                               ; preds = %1
  %12 = landingpad { ptr, i32 }
          cleanup
  tail call void @_ZN7datalog16accounted_objectD2Ev(ptr noundef nonnull align 8 dereferenceable(33) %3) #25
  resume { ptr, i32 } %12

_ZN7datalog13instr_deallocC2Ej.exit:              ; preds = %.lr.ph.i.i.i.i.i.i.i.i.i.i.i
  %13 = getelementptr inbounds nuw i8, ptr %2, i64 48
  store ptr %7, ptr %13, align 8, !tbaa !302
  %14 = getelementptr inbounds nuw i8, ptr %2, i64 56
  store i32 8, ptr %14, align 8, !tbaa !305
  %15 = getelementptr inbounds nuw i8, ptr %2, i64 60
  store i32 0, ptr %15, align 4, !tbaa !306
  %16 = getelementptr inbounds nuw i8, ptr %2, i64 64
  store i32 0, ptr %16, align 8, !tbaa !307
  store ptr getelementptr inbounds nuw inrange(-16, 56) (i8, ptr @_ZTVN7datalog13instr_deallocE, i64 16), ptr %2, align 8, !tbaa !43
  %17 = getelementptr inbounds nuw i8, ptr %2, i64 72
  store i32 %0, ptr %17, align 8, !tbaa !316
  ret ptr %2
}